Certificate:
    Data:
        Version: 3 (0x2)
        Serial Number: 0 (0x0)
        Signature Algorithm: sha1WithRSAEncryption
        Issuer: C=CA, ST=BEIJING, O=USTB, OU=TECH, CN=beike/emailAddress=forwarding2012@yahoo.com.cn
        Validity
            Not Before: Oct 16 02:38:41 2012 GMT
            Not After : Oct 16 02:38:41 2015 GMT
        Subject: C=CA, ST=BEIJING, O=USTB, OU=TECH, CN=beike/emailAddress=forwarding2012@yahoo.com.cn
        Subject Public Key Info:
            Public Key Algorithm: rsaEncryption
            RSA Public Key: (1024 bit)
                Modulus (1024 bit):
                    00:d6:65:fe:8d:fe:47:69:95:79:33:2b:c2:d3:dd:
                    48:93:f4:a5:ce:c1:35:8a:b7:47:f6:d1:4d:26:3b:
                    0a:03:4b:79:ad:ba:d8:27:13:f8:fe:cf:6f:a0:7d:
                    6e:fe:68:dd:63:da:b0:9e:84:cf:d4:d9:7c:2c:2d:
                    7b:9c:3e:94:52:6e:74:28:50:58:56:c1:83:43:05:
                    83:8f:22:43:98:30:b8:65:42:9e:27:e1:bc:f3:b8:
                    39:9d:e6:a2:83:26:1e:59:d5:e2:7d:40:0c:b5:32:
                    6d:41:17:07:1d:0b:ea:42:e5:e3:b3:97:ef:b6:1d:
                    04:6b:70:7f:9b:8b:54:d4:13
                Exponent: 65537 (0x10001)
        X509v3 extensions:
            X509v3 Basic Constraints: 
                CA:FALSE
            Netscape Comment: 
                OpenSSL Generated Certificate
            X509v3 Subject Key Identifier: 
                64:3A:05:01:A7:A6:18:C8:A7:CA:86:FE:F3:5E:62:B1:41:47:36:6D
            X509v3 Authority Key Identifier: 
                keyid:64:3A:05:01:A7:A6:18:C8:A7:CA:86:FE:F3:5E:62:B1:41:47:36:6D

    Signature Algorithm: sha1WithRSAEncryption
        19:cd:5e:6e:87:57:4f:ee:fb:90:b0:87:84:50:cc:e9:b3:c6:
        57:75:71:3d:55:c9:c4:0f:52:bf:96:ed:2d:7e:97:f7:e8:71:
        c9:93:3d:cb:49:46:9c:84:32:d4:94:3c:e8:e0:ae:98:61:61:
        92:67:ef:4f:d6:4c:51:4c:e6:4d:fc:ac:86:5b:90:1a:75:85:
        1d:d1:da:33:17:0a:43:ab:2a:dc:9b:8a:07:ab:84:ea:be:ca:
        91:79:bd:d9:76:f2:91:e9:c3:92:a8:73:80:89:cc:9f:dd:0a:
        25:ef:ee:98:a1:3f:f5:11:4c:ab:d1:2b:71:d1:12:04:fd:e2:
        60:ce
-----BEGIN CERTIFICATE-----
MIIC4zCCAkygAwIBAgIBADANBgkqhkiG9w0BAQUFADB5MQswCQYDVQQGEwJDQTEQ
MA4GA1UECBMHQkVJSklORzENMAsGA1UEChMEVVNUQjENMAsGA1UECxMEVEVDSDEO
MAwGA1UEAxMFYmVpa2UxKjAoBgkqhkiG9w0BCQEWG2ZvcndhcmRpbmcyMDEyQHlh
aG9vLmNvbS5jbjAeFw0xMjEwMTYwMjM4NDFaFw0xNTEwMTYwMjM4NDFaMHkxCzAJ
BgNVBAYTAkNBMRAwDgYDVQQIEwdCRUlKSU5HMQ0wCwYDVQQKEwRVU1RCMQ0wCwYD
VQQLEwRURUNIMQ4wDAYDVQQDEwViZWlrZTEqMCgGCSqGSIb3DQEJARYbZm9yd2Fy
ZGluZzIwMTJAeWFob28uY29tLmNuMIGfMA0GCSqGSIb3DQEBAQUAA4GNADCBiQKB
gQDWZf6N/kdplXkzK8LT3UiT9KXOwTWKt0f20U0mOwoDS3mtutgnE/j+z2+gfW7+
aN1j2rCehM/U2XwsLXucPpRSbnQoUFhWwYNDBYOPIkOYMLhlQp4n4bzzuDmd5qKD
Jh5Z1eJ9QAy1Mm1BFwcdC+pC5eOzl++2HQRrcH+bi1TUEwIDAQABo3sweTAJBgNV
HRMEAjAAMCwGCWCGSAGG+EIBDQQfFh1PcGVuU1NMIEdlbmVyYXRlZCBDZXJ0aWZp
Y2F0ZTAdBgNVHQ4EFgQUZDoFAaemGMinyob+815isUFHNm0wHwYDVR0jBBgwFoAU
ZDoFAaemGMinyob+815isUFHNm0wDQYJKoZIhvcNAQEFBQADgYEAGc1ebodXT+77
kLCHhFDM6bPGV3VxPVXJxA9Sv5btLX6X9+hxyZM9y0lGnIQy1JQ86OCumGFhkmfv
T9ZMUUzmTfyshluQGnWFHdHaMxcKQ6sq3JuKB6uE6r7KkXm92XbykenDkqhzgInM
n90KJe/umKE/9RFMq9ErcdESBP3iYM4=
-----END CERTIFICATE-----
