Certificate:
    Data:
        Version: 3 (0x2)
        Serial Number: 1 (0x1)
        Signature Algorithm: sha1WithRSAEncryption
        Issuer: C=CA, ST=BEIJING, O=USTB, OU=TECH, CN=beike/emailAddress=forwarding2012@yahoo.com.cn
        Validity
            Not Before: Oct 16 02:41:21 2012 GMT
            Not After : Oct 16 02:41:21 2013 GMT
        Subject: C=CA, ST=BEIJING, O=USTB, OU=TECH, CN=beike/emailAddress=forwarding2012@yahoo.com.cn
        Subject Public Key Info:
            Public Key Algorithm: rsaEncryption
            RSA Public Key: (1024 bit)
                Modulus (1024 bit):
                    00:ec:a6:0b:51:e2:10:0f:f9:a8:e8:0d:40:bd:9c:
                    cc:bc:2b:7f:8d:91:f5:d6:52:ec:cb:a2:a4:11:85:
                    95:29:e2:69:0a:78:29:63:2f:62:11:e7:a0:78:48:
                    a7:cb:4b:78:a0:5e:b9:84:4c:14:f5:da:0f:78:ce:
                    42:57:52:be:b4:55:b4:c4:0d:15:69:97:01:95:67:
                    dd:e9:88:35:2e:3e:29:bc:77:ea:54:3e:fe:05:7b:
                    da:f9:7c:f7:95:72:7e:d8:0b:d3:87:d5:24:25:72:
                    2f:f5:d8:48:28:1d:19:28:fd:aa:4d:19:47:81:c4:
                    9a:f4:f0:9f:1f:4c:f6:0e:07
                Exponent: 65537 (0x10001)
        X509v3 extensions:
            X509v3 Basic Constraints: 
                CA:FALSE
            Netscape Comment: 
                OpenSSL Generated Certificate
            X509v3 Subject Key Identifier: 
                9C:B3:C1:E6:60:09:33:09:A6:D3:60:0F:04:C8:72:EE:4E:84:E3:A9
            X509v3 Authority Key Identifier: 
                keyid:64:3A:05:01:A7:A6:18:C8:A7:CA:86:FE:F3:5E:62:B1:41:47:36:6D

    Signature Algorithm: sha1WithRSAEncryption
        a6:c2:82:42:6a:1f:e6:54:d5:e3:0b:fc:51:b4:ad:d6:3d:5e:
        14:de:70:5f:bd:20:3c:bd:dc:3b:2a:07:ea:c8:10:3a:24:fd:
        12:31:4a:ea:36:76:2b:b8:53:61:47:2f:3d:56:99:4f:7d:84:
        8d:e0:b4:cc:ff:19:f6:2e:94:da:fa:7d:4f:e2:66:c0:82:e8:
        82:83:33:11:ce:b0:8c:a2:9e:a1:d5:dd:3f:fa:0c:36:09:1c:
        2c:93:08:23:7a:d7:ea:8d:12:49:f1:41:d9:1b:af:08:f5:8a:
        49:f3:a2:bd:25:d3:0a:13:ae:30:77:04:a2:1c:45:49:d5:24:
        fd:70
-----BEGIN CERTIFICATE-----
MIIC4zCCAkygAwIBAgIBATANBgkqhkiG9w0BAQUFADB5MQswCQYDVQQGEwJDQTEQ
MA4GA1UECBMHQkVJSklORzENMAsGA1UEChMEVVNUQjENMAsGA1UECxMEVEVDSDEO
MAwGA1UEAxMFYmVpa2UxKjAoBgkqhkiG9w0BCQEWG2ZvcndhcmRpbmcyMDEyQHlh
aG9vLmNvbS5jbjAeFw0xMjEwMTYwMjQxMjFaFw0xMzEwMTYwMjQxMjFaMHkxCzAJ
BgNVBAYTAkNBMRAwDgYDVQQIEwdCRUlKSU5HMQ0wCwYDVQQKEwRVU1RCMQ0wCwYD
VQQLEwRURUNIMQ4wDAYDVQQDEwViZWlrZTEqMCgGCSqGSIb3DQEJARYbZm9yd2Fy
ZGluZzIwMTJAeWFob28uY29tLmNuMIGfMA0GCSqGSIb3DQEBAQUAA4GNADCBiQKB
gQDspgtR4hAP+ajoDUC9nMy8K3+NkfXWUuzLoqQRhZUp4mkKeCljL2IR56B4SKfL
S3igXrmETBT12g94zkJXUr60VbTEDRVplwGVZ93piDUuPim8d+pUPv4Fe9r5fPeV
cn7YC9OH1SQlci/12EgoHRko/apNGUeBxJr08J8fTPYOBwIDAQABo3sweTAJBgNV
HRMEAjAAMCwGCWCGSAGG+EIBDQQfFh1PcGVuU1NMIEdlbmVyYXRlZCBDZXJ0aWZp
Y2F0ZTAdBgNVHQ4EFgQUnLPB5mAJMwmm02APBMhy7k6E46kwHwYDVR0jBBgwFoAU
ZDoFAaemGMinyob+815isUFHNm0wDQYJKoZIhvcNAQEFBQADgYEApsKCQmof5lTV
4wv8UbSt1j1eFN5wX70gPL3cOyoH6sgQOiT9EjFK6jZ2K7hTYUcvPVaZT32EjeC0
zP8Z9i6U2vp9T+JmwILogoMzEc6wjKKeodXdP/oMNgkcLJMII3rX6o0SSfFB2Ruv
CPWKSfOivSXTChOuMHcEohxFSdUk/XA=
-----END CERTIFICATE-----
