Certificate:
    Data:
        Version: 3 (0x2)
        Serial Number: 4 (0x4)
        Signature Algorithm: sha1WithRSAEncryption
        Issuer: C=CA, ST=BEIJING, O=USTB, OU=TECH, CN=beike/emailAddress=forwarding2012@yahoo.com.cn
        Validity
            Not Before: Nov 26 07:06:52 2012 GMT
            Not After : Nov 26 07:06:52 2013 GMT
        Subject: C=CA, ST=BEIJING, O=USTB, OU=TECH, CN=beike2012/emailAddress=forwarding2012@yahoo.com.cn
        Subject Public Key Info:
            Public Key Algorithm: rsaEncryption
            RSA Public Key: (1024 bit)
                Modulus (1024 bit):
                    00:c3:cd:e6:37:fd:81:45:d6:aa:d6:c7:a0:da:72:
                    6d:85:ff:82:a6:69:44:da:15:48:f2:c4:83:dd:51:
                    d8:e3:60:07:7e:d0:28:78:88:2f:26:a5:89:22:b0:
                    dc:fc:87:6d:ac:d1:10:41:f7:26:dc:da:15:d7:ae:
                    39:20:9e:58:94:30:60:b5:fa:40:39:75:d4:f4:27:
                    32:96:38:c1:3e:b4:7e:41:d7:b3:66:29:89:46:7d:
                    4c:ab:03:62:b8:5f:ca:6c:dd:bb:ac:76:47:25:9f:
                    a5:ef:62:b0:f8:3d:81:77:f9:4b:f2:d7:ab:94:25:
                    8f:0a:6f:c5:51:f1:94:02:55
                Exponent: 65537 (0x10001)
        X509v3 extensions:
            X509v3 Basic Constraints: 
                CA:FALSE
            Netscape Comment: 
                OpenSSL Generated Certificate
            X509v3 Subject Key Identifier: 
                23:9C:F2:BC:E5:70:28:88:FE:17:02:59:4B:08:3D:C4:76:14:35:08
            X509v3 Authority Key Identifier: 
                keyid:64:3A:05:01:A7:A6:18:C8:A7:CA:86:FE:F3:5E:62:B1:41:47:36:6D

    Signature Algorithm: sha1WithRSAEncryption
        c4:04:5f:7f:d6:42:19:55:64:36:9b:ab:98:68:9f:f4:ff:ba:
        d6:40:63:b3:ce:96:c8:8c:1b:b5:69:c7:b6:ef:14:23:f7:be:
        48:58:e3:97:87:3d:4b:e1:9a:1a:61:de:1c:f0:fe:9c:a2:fa:
        ed:d6:0d:a4:92:8d:da:89:b7:b3:42:63:df:96:b1:f1:44:9a:
        55:24:9e:ed:1b:4c:bf:01:8b:9b:f9:31:9f:c3:d4:6d:fc:25:
        59:58:89:7a:ef:4d:08:0e:bc:34:9e:7b:8b:64:da:92:09:5e:
        9d:da:ea:58:3f:c9:3b:c7:55:80:a5:ca:d6:ce:67:c4:d0:d2:
        a8:46
-----BEGIN CERTIFICATE-----
MIIC5zCCAlCgAwIBAgIBBDANBgkqhkiG9w0BAQUFADB5MQswCQYDVQQGEwJDQTEQ
MA4GA1UECBMHQkVJSklORzENMAsGA1UEChMEVVNUQjENMAsGA1UECxMEVEVDSDEO
MAwGA1UEAxMFYmVpa2UxKjAoBgkqhkiG9w0BCQEWG2ZvcndhcmRpbmcyMDEyQHlh
aG9vLmNvbS5jbjAeFw0xMjExMjYwNzA2NTJaFw0xMzExMjYwNzA2NTJaMH0xCzAJ
BgNVBAYTAkNBMRAwDgYDVQQIEwdCRUlKSU5HMQ0wCwYDVQQKEwRVU1RCMQ0wCwYD
VQQLEwRURUNIMRIwEAYDVQQDEwliZWlrZTIwMTIxKjAoBgkqhkiG9w0BCQEWG2Zv
cndhcmRpbmcyMDEyQHlhaG9vLmNvbS5jbjCBnzANBgkqhkiG9w0BAQEFAAOBjQAw
gYkCgYEAw83mN/2BRdaq1seg2nJthf+CpmlE2hVI8sSD3VHY42AHftAoeIgvJqWJ
IrDc/IdtrNEQQfcm3NoV1645IJ5YlDBgtfpAOXXU9CcyljjBPrR+QdezZimJRn1M
qwNiuF/KbN27rHZHJZ+l72Kw+D2Bd/lL8terlCWPCm/FUfGUAlUCAwEAAaN7MHkw
CQYDVR0TBAIwADAsBglghkgBhvhCAQ0EHxYdT3BlblNTTCBHZW5lcmF0ZWQgQ2Vy
dGlmaWNhdGUwHQYDVR0OBBYEFCOc8rzlcCiI/hcCWUsIPcR2FDUIMB8GA1UdIwQY
MBaAFGQ6BQGnphjIp8qG/vNeYrFBRzZtMA0GCSqGSIb3DQEBBQUAA4GBAMQEX3/W
QhlVZDabq5hon/T/utZAY7POlsiMG7Vpx7bvFCP3vkhY45eHPUvhmhph3hzw/pyi
+u3WDaSSjdqJt7NCY9+WsfFEmlUknu0bTL8Bi5v5MZ/D1G38JVlYiXrvTQgOvDSe
e4tk2pIJXp3a6lg/yTvHVYClytbOZ8TQ0qhG
-----END CERTIFICATE-----
