Certificate:
    Data:
        Version: 3 (0x2)
        Serial Number: 2 (0x2)
        Signature Algorithm: sha1WithRSAEncryption
        Issuer: C=CA, ST=BEIJING, O=USTB, OU=TECH, CN=beike/emailAddress=forwarding2012@yahoo.com.cn
        Validity
            Not Before: Oct 16 02:41:37 2012 GMT
            Not After : Oct 16 02:41:37 2013 GMT
        Subject: C=CA, ST=BEIJING, O=USTB, OU=TECH, CN=beike/emailAddress=forwarding2012@yahoo.com.cn
        Subject Public Key Info:
            Public Key Algorithm: rsaEncryption
            RSA Public Key: (1024 bit)
                Modulus (1024 bit):
                    00:f6:c3:5d:f5:90:26:ac:5a:63:4c:28:d5:ca:3d:
                    0c:2e:ea:8e:f2:16:b7:21:54:79:31:59:1d:24:cd:
                    4b:94:f9:16:cf:61:3d:b6:39:c8:78:61:14:e0:3e:
                    e4:31:b5:08:a5:b2:b8:b2:64:d9:52:0a:f4:ea:0a:
                    da:1a:7c:7c:22:e4:40:08:12:60:6b:67:56:a3:28:
                    cc:ee:69:7a:73:3d:8f:01:4d:99:f4:01:64:8d:79:
                    74:e3:0f:f5:1b:46:a5:13:5e:df:ba:e8:30:83:54:
                    b3:9e:e9:99:cb:4c:98:49:3e:fa:17:26:39:b5:28:
                    a7:08:da:8e:13:65:26:84:9d
                Exponent: 65537 (0x10001)
        X509v3 extensions:
            X509v3 Basic Constraints: 
                CA:FALSE
            Netscape Comment: 
                OpenSSL Generated Certificate
            X509v3 Subject Key Identifier: 
                4D:CD:F5:7F:9A:B6:D4:EE:54:32:2B:03:67:A7:22:D2:C0:51:F3:81
            X509v3 Authority Key Identifier: 
                keyid:64:3A:05:01:A7:A6:18:C8:A7:CA:86:FE:F3:5E:62:B1:41:47:36:6D

    Signature Algorithm: sha1WithRSAEncryption
        53:62:2d:2c:87:39:b2:7e:d8:0b:d9:74:a0:98:da:ce:33:52:
        ce:c0:73:bb:92:49:27:69:b1:ee:f9:5c:9a:46:06:b7:12:ec:
        b8:d3:1c:50:62:0a:6f:f7:34:48:4e:e7:0b:d9:c9:f7:7a:78:
        f4:0d:0a:8f:06:82:8f:7a:ea:fc:7c:e7:27:02:5d:b7:91:68:
        b4:04:e4:fb:cc:0c:29:0c:5b:29:3d:01:37:68:10:1e:6c:36:
        ef:e0:ad:66:3e:27:2b:cc:3e:86:70:26:f8:2f:a4:2d:d0:8f:
        65:e2:cd:98:53:84:ad:2c:9d:22:49:89:b0:a9:ad:5a:f7:d4:
        90:16
-----BEGIN CERTIFICATE-----
MIIC4zCCAkygAwIBAgIBAjANBgkqhkiG9w0BAQUFADB5MQswCQYDVQQGEwJDQTEQ
MA4GA1UECBMHQkVJSklORzENMAsGA1UEChMEVVNUQjENMAsGA1UECxMEVEVDSDEO
MAwGA1UEAxMFYmVpa2UxKjAoBgkqhkiG9w0BCQEWG2ZvcndhcmRpbmcyMDEyQHlh
aG9vLmNvbS5jbjAeFw0xMjEwMTYwMjQxMzdaFw0xMzEwMTYwMjQxMzdaMHkxCzAJ
BgNVBAYTAkNBMRAwDgYDVQQIEwdCRUlKSU5HMQ0wCwYDVQQKEwRVU1RCMQ0wCwYD
VQQLEwRURUNIMQ4wDAYDVQQDEwViZWlrZTEqMCgGCSqGSIb3DQEJARYbZm9yd2Fy
ZGluZzIwMTJAeWFob28uY29tLmNuMIGfMA0GCSqGSIb3DQEBAQUAA4GNADCBiQKB
gQD2w131kCasWmNMKNXKPQwu6o7yFrchVHkxWR0kzUuU+RbPYT22Och4YRTgPuQx
tQilsriyZNlSCvTqCtoafHwi5EAIEmBrZ1ajKMzuaXpzPY8BTZn0AWSNeXTjD/Ub
RqUTXt+66DCDVLOe6ZnLTJhJPvoXJjm1KKcI2o4TZSaEnQIDAQABo3sweTAJBgNV
HRMEAjAAMCwGCWCGSAGG+EIBDQQfFh1PcGVuU1NMIEdlbmVyYXRlZCBDZXJ0aWZp
Y2F0ZTAdBgNVHQ4EFgQUTc31f5q21O5UMisDZ6ci0sBR84EwHwYDVR0jBBgwFoAU
ZDoFAaemGMinyob+815isUFHNm0wDQYJKoZIhvcNAQEFBQADgYEAU2ItLIc5sn7Y
C9l0oJjazjNSzsBzu5JJJ2mx7vlcmkYGtxLsuNMcUGIKb/c0SE7nC9nJ93p49A0K
jwaCj3rq/HznJwJdt5FotATk+8wMKQxbKT0BN2gQHmw27+CtZj4nK8w+hnAm+C+k
LdCPZeLNmFOErSydIkmJsKmtWvfUkBY=
-----END CERTIFICATE-----
